; Function Attrs: mustprogress nounwind willreturn memory(argmem: readwrite, inaccessiblemem: readwrite) uwtable
define dso_local void @xfree_ptr(ptr noundef captures(address_is_null) %0) #0 {
  %.not.i = icmp eq ptr %0, null
  br i1 %.not.i, label %slurm_xfree.exit, label %2

2:                                                ; preds = %1
  %3 = getelementptr inbounds i8, ptr %0, i64 -16
  store i64 0, ptr %3, align 8
  tail call void @free(ptr noundef nonnull %3) #11
  br label %slurm_xfree.exit

slurm_xfree.exit:                                 ; preds = %1, %2
  ret void
}